(lp0
(lp1
F0.13691465869665384
aF0.13222591672540882
aF0.13217026239982319
aF0.1319381267909367
aF0.13494258311293042
aF0.12382028461384242
aF0.1353011435369352
aF0.133520700013618
aF0.13105334727436255
aF0.12983100858294352
aF0.13310184562197297
aF0.1268503915802075
aF0.1271815726315247
aF0.12952929222450713
aF0.1312307442488674
aF0.12275450785459587
aF0.13584210154060364
aF0.13335760748968542
aF0.13102598443426108
aF0.12565708781982768
aF0.13132214491472446
aF0.13579865621341697
aF0.12988870934352176
aF0.12583431081290342
aF0.12476146613907713
aF0.13385114884185992
aF0.1325040838528138
aF0.13228739671619652
aF0.13359604842707573
aF0.13505759165304834
aF0.1330958373375843
aa(lp2
F0.2725088608965472
aF0.2725247090393046
aF0.2598484927769983
aF0.2587985067947247
aF0.25708902184879634
aF0.25864199497342505
aF0.2577236828090745
aF0.25694621526637335
aF0.2543080467879614
aF0.2500465562727867
aF0.2716933503525787
aF0.2664533550216676
aF0.25631636251511336
aF0.265892583521041
aF0.2507364612626851
aF0.26541660537761125
aF0.2428780418883886
aF0.2644458432518208
aF0.27135126363116807
aF0.25481715604573674
aF0.25499507955906225
aF0.25734462535162467
aF0.25862673379540185
aF0.26886762837807326
aF0.2652076439884449
aF0.26106353014240696
aF0.2667987117215576
aF0.25385503473879373
aF0.25876873711548687
aF0.26395751503273107
aF0.25259706185317254
aa(lp3
F0.40684490799262335
aF0.3831136819731936
aF0.40324742571939964
aF0.39425554836700527
aF0.3765654494479687
aF0.3865040839837021
aF0.38118997537012655
aF0.39632663110346594
aF0.39504680545417925
aF0.39813703520360655
aF0.39192384162337957
aF0.3893348553669022
aF0.39143932072684434
aF0.3937510067361287
aF0.3832234172765255
aF0.3952502256173105
aF0.36659374616859036
aF0.40047504831099373
aF0.3756533330126402
aF0.39540481946634337
aF0.3915834802464085
aF0.3856073127070803
aF0.3862623451078212
aF0.3953551154543975
aF0.36803765566401925
aF0.39516960535533696
aF0.383276449310328
aF0.3802182954588466
aF0.4172576840853114
aF0.40500586216085266
aF0.38076622140764155
aa(lp4
F0.5571139150353182
aF0.49853063951889
aF0.5255461112134908
aF0.5204579152659052
aF0.5243985108498757
aF0.5377277777613426
aF0.5250889733163852
aF0.5245725293662639
aF0.5448709238767531
aF0.5236740106665555
aF0.5226832323313226
aF0.5353527792480914
aF0.5367425214970815
aF0.5077568934330395
aF0.5043439924922918
aF0.488595057529446
aF0.4990015327554553
aF0.536229166961056
aF0.5195050118855061
aF0.5038088441353357
aF0.5263548085707771
aF0.5577092876684577
aF0.5355501051606985
aF0.5031246323136034
aF0.5343024521626688
aF0.534138983385014
aF0.527307268926255
aF0.5322721165625263
aF0.4963619456393259
aF0.5311314145068855
aF0.5170811052435106
aa(lp5
F0.6696083156317122
aF0.6304984797078961
aF0.662988067083048
aF0.6370936398839565
aF0.6663374258412792
aF0.628241668589595
aF0.6210415390258021
aF0.6930143966784078
aF0.619793397669943
aF0.6569788855976298
aF0.6400388086979698
aF0.6643724022438667
aF0.6577838703951713
aF0.6353297197933625
aF0.6514956622482955
aF0.6274235317521489
aF0.6877826797557846
aF0.6784410851396976
aF0.6534285774267654
aF0.6423643018932038
aF0.6440554137730283
aF0.6817234290501658
aF0.6516923120747707
aF0.6698043389053768
aF0.6480001717514062
aF0.6702398458789086
aF0.6636114766260401
aF0.6508749871175503
aF0.6508462856486525
aF0.6518607962609182
aF0.6399129891340317
aa(lp6
F0.7906876896268701
aF0.7799790912479387
aF0.8082659320271135
aF0.7526696623006839
aF0.76802876974156
aF0.7928663405152003
aF0.7609418127563643
aF0.7691875872056411
aF0.8016995041872639
aF0.7897546790535833
aF0.7838697890712767
aF0.769968485953701
aF0.7760953647551897
aF0.7787918115601673
aF0.7926220658642176
aF0.7807603378005061
aF0.7936487258366215
aF0.8042496879916302
aF0.7431100451930911
aF0.8053395449696221
aF0.7698845699544098
aF0.8012485204850022
aF0.7854512919592518
aF0.8011916458698836
aF0.7921448619777118
aF0.7713178149317254
aF0.7700502527115193
aF0.8060440331456467
aF0.7867976267983124
aF0.7848004031923252
aF0.7660271208621072
aa(lp7
F0.9952544748401114
aF0.9041305489804682
aF0.9395823782247649
aF0.9320660657948723
aF0.9010377699722583
aF0.8660712068397133
aF0.9191744374671671
aF0.9372059539583877
aF0.9079887386068392
aF0.8842560312859681
aF0.9290509341779474
aF0.9129486629594181
aF0.9224760504006742
aF0.93353552437841
aF0.9403246780555333
aF0.9253463017154555
aF0.9348055914408263
aF0.9070143031328161
aF0.9442521274322672
aF0.9157470932041646
aF0.9188219181598
aF0.945734220201716
aF0.8677929507229504
aF0.8757320553161088
aF0.9098658323926336
aF0.8969621697802868
aF0.9385757352798707
aF0.9020895497616556
aF0.8946631105071996
aF0.9618221637903421
aF0.8858818600169205
aa(lp8
F0.9716961537608314
aF1.047873402803314
aF1.06074556567101
aF1.0438421781856553
aF0.9717436199590961
aF1.018549029469106
aF1.0455763612999907
aF1.0248450150945048
aF1.0024670539352818
aF1.0775325567048153
aF1.0347573383916246
aF1.0790041998011135
aF1.0366028395293678
aF1.0207845881616597
aF1.053786485438984
aF1.0138748527513541
aF1.0903811081887553
aF1.0027544638054289
aF1.1185888853615995
aF1.0599894633791327
aF1.0431754233408805
aF1.054398536489927
aF1.0380238769193981
aF1.0830891656306219
aF1.0324376920046054
aF1.0458124747231734
aF1.0716493588274916
aF1.0913625925946737
aF1.0910239692963597
aF1.0585595783489405
aF1.0928353534344324
aa(lp9
F1.1219816450285767
aF1.2193729958161554
aF1.1303214495641842
aF1.25861212385707
aF1.1503585794015159
aF1.160922598955544
aF1.2060070316220388
aF1.2193328313835485
aF1.217292380703212
aF1.1788036099602532
aF1.1481664657582504
aF1.164567362153255
aF1.1394369122510977
aF1.1192752716156187
aF1.1798243607048235
aF1.1917603465156204
aF1.2321419248754046
aF1.1871782738437928
aF1.1802519798756737
aF1.1803791785989974
aF1.1323649141187364
aF1.1915039303139545
aF1.17011997947163
aF1.1400274512502517
aF1.1928373262235008
aF1.1762079747913967
aF1.183580257043032
aF1.2063765861642413
aF1.1763845642272373
aF1.1647255901531361
aF1.1629712833632628
aa(lp10
F1.4061174631991316
aF1.2596309672144836
aF1.2603326981731076
aF1.2576147145090402
aF1.3214616117348177
aF1.3464908092005552
aF1.2203555586519406
aF1.3346881544558125
aF1.3359448026009155
aF1.2737049663983933
aF1.3292168673730522
aF1.3281013131286248
aF1.2700779487762015
aF1.3228796358318329
aF1.3195668600284343
aF1.2454243961677718
aF1.2332893305548445
aF1.390788268011965
aF1.3337058065357648
aF1.2985434239080385
aF1.3603618211507975
aF1.2798183616930134
aF1.350816484931132
aF1.2937069573680355
aF1.291941705832583
aF1.3172136157970789
aF1.2125036400740807
aF1.3938846450453448
aF1.255071654423083
aF1.306290872640766
aF1.3330781857331604
aa(lp11
F1.5060454931316016
aF1.4429566939153466
aF1.4584433915582842
aF1.3669137363403918
aF1.401874568195634
aF1.4652199459638529
aF1.4119971912614886
aF1.404197963422063
aF1.4616166970886424
aF1.3727225730875747
aF1.4323428545130052
aF1.4074256111039432
aF1.4489475191294474
aF1.456824578337993
aF1.4067325044675012
aF1.4460967166824839
aF1.4666487545629712
aF1.4583785007431522
aF1.4515677664306563
aF1.4248322839236471
aF1.4568864785243512
aF1.4826015942420696
aF1.4423150698727025
aF1.3568802663406598
aF1.4063467212602148
aF1.4608790210439133
aF1.43381915113149
aF1.493895232753436
aF1.4041107221914417
aF1.4733519972782887
aF1.432701904489398
aa(lp12
F1.645830440344844
aF1.5647534124970703
aF1.530521583692792
aF1.5845972046274803
aF1.6255612603849015
aF1.6416247009650176
aF1.6075591466782946
aF1.6060973305531625
aF1.6220285463887154
aF1.6194227241407706
aF1.5798860637135408
aF1.6540348421877087
aF1.562590353870764
aF1.4986601041986227
aF1.5774372503559866
aF1.547678984397488
aF1.6262007409725832
aF1.467988968529251
aF1.5947745376535225
aF1.5780150189159212
aF1.5432867171258962
aF1.6237917248068456
aF1.5585929811324206
aF1.6496389395453672
aF1.4914773763081983
aF1.5835151274549988
aF1.5808958028358016
aF1.5971436547554034
aF1.608074976985647
aF1.54056785271164
aF1.6339217974786333
aa(lp13
F1.673098213806323
aF1.6987495542719715
aF1.7093371330324472
aF1.7833094310208306
aF1.7700314642036497
aF1.6175891984802182
aF1.7620213623107992
aF1.6829485054803075
aF1.7182538533459784
aF1.6750162268713822
aF1.7693573841446106
aF1.7015226089792856
aF1.7602083400544684
aF1.6979044941648906
aF1.6980076563737942
aF1.7704805032078819
aF1.7759577683535672
aF1.7076611809309703
aF1.6812314666232553
aF1.7549069650385751
aF1.744037362852846
aF1.6874522043152609
aF1.7881649640789825
aF1.7672050434217297
aF1.7070982024089005
aF1.7850567141921205
aF1.6785791514381512
aF1.6830021868022853
aF1.7504706381039665
aF1.6205493832072697
aF1.7316330001436577
aa(lp14
F1.8399187233723997
aF1.832033641604937
aF1.8834167278757836
aF1.8307831346327854
aF1.8642145789846651
aF1.8129725863732098
aF1.840720655120068
aF1.8660260150627783
aF1.8524677928255433
aF1.8517333623383367
aF1.8175858366184026
aF1.8607481439052684
aF1.9162124581753346
aF1.8556577223514588
aF1.8224019367149094
aF1.8458665468681115
aF1.8816845310898211
aF1.826519273887059
aF1.8445948903553666
aF1.8694435250390034
aF1.8557523298798133
aF1.812952721276863
aF1.7850837567946183
aF1.894024383384422
aF1.8124327675946759
aF1.9040356248043575
aF1.802084841058419
aF1.7729979947818515
aF1.8777145175163603
aF1.8396210556848
aF1.8692262092785221
aa(lp15
F1.7607241912484886
aF1.9569514402845862
aF1.820817887051921
aF2.001186801045647
aF1.9779622909277943
aF1.920052656435808
aF1.8975862200258122
aF1.965583828717832
aF2.0143399006639506
aF1.9424409440078163
aF1.961503218244863
aF2.0047046344902313
aF1.9696951450571043
aF1.9329458384007125
aF2.0091176389690766
aF2.0035319368553277
aF1.9707458910872087
aF1.9045778599834007
aF1.9086210074872607
aF2.00342775147023
aF1.9947044126635567
aF1.8805882803606961
aF1.9528688605920916
aF1.9514362082929109
aF1.8953488677829549
aF1.8728782821898347
aF1.929625037314353
aF1.9643502282350636
aF2.0353302080617968
aF2.0500165904229344
aF1.959947282503205
aa(lp16
F2.2083794728849355
aF2.088374327978999
aF2.1395728463655015
aF2.092125946475
aF2.0583982639779026
aF1.9622987740501348
aF2.0839475996460326
aF2.109039368686373
aF2.0044778373193917
aF2.102143887350187
aF1.9753491887847305
aF2.1093960784626202
aF2.150013352051043
aF1.9869492177447097
aF2.099798486927612
aF2.1605723787991082
aF2.044737714308397
aF2.0206692806775974
aF2.0528335913534588
aF2.1594223763002014
aF2.1369305387495503
aF2.084860566169269
aF2.1262809063083403
aF1.947534459378282
aF2.100530057691867
aF2.013165997075169
aF2.1185323044744107
aF2.1327960401101245
aF2.130116581440197
aF2.2180590211333797
aF2.0046341143574384
aa(lp17
F2.256933491555792
aF2.2271686397878145
aF2.2983624990431326
aF2.078475266863767
aF2.236724782355321
aF2.2451808619614577
aF2.2197174555494525
aF2.10362490109924
aF2.2285378996322938
aF2.132135930626826
aF2.256418331828838
aF2.1541107048325605
aF2.23926510587659
aF2.1752164118851542
aF2.2957449399499996
aF2.0902448221440797
aF2.2581643996184213
aF2.2017511706393784
aF2.2733355139779645
aF2.2472180323317623
aF2.1613990665824554
aF2.136582694849534
aF2.2375406066267964
aF2.2061013031587167
aF2.2225975817699624
aF2.2561950020192434
aF2.236705704345939
aF2.084080261688794
aF2.2211311727143195
aF2.2508937734701595
aF2.251215962173714
aa(lp18
F2.172493405932408
aF2.2274300520877097
aF2.3891967665303997
aF2.2622803630595363
aF2.2949175240081723
aF2.391186039051531
aF2.355161604576892
aF2.2576756678718444
aF2.338663166848501
aF2.4126233290469
aF2.3182255743310476
aF2.4408562388591335
aF2.3265787522230807
aF2.3710152479685105
aF2.31212304252543
aF2.361350174642874
aF2.253076695148682
aF2.354215691306241
aF2.374766205119439
aF2.3415949317191926
aF2.3178979202862386
aF2.3699288150550677
aF2.3101085644072934
aF2.3376716199341385
aF2.453131071537262
aF2.4579483825914443
aF2.3887652687463903
aF2.374880724449445
aF2.431178429977966
aF2.3197734682665074
aF2.3534690768307804
aa(lp19
F2.5680447038386043
aF2.502369009072495
aF2.5116414412996133
aF2.4756329474052796
aF2.5106879862118126
aF2.5821062765164045
aF2.477689126290717
aF2.4192068197492813
aF2.4603177068562405
aF2.4677820076967865
aF2.5225834696245824
aF2.5526170400807997
aF2.456969050240828
aF2.528052153558411
aF2.37151221976759
aF2.480177424655116
aF2.376783662195057
aF2.539756217292882
aF2.50597657114976
aF2.429409848106968
aF2.4892923832885265
aF2.58554008642532
aF2.4378629795808306
aF2.5194505640685003
aF2.4401201326574187
aF2.4564282400537394
aF2.4507239561656773
aF2.6427127240720862
aF2.5305786370173236
aF2.340975072530724
aF2.5432215793999635
aa(lp20
F2.55589607650631
aF2.729717980140365
aF2.5686089559837804
aF2.7648082765648274
aF2.4829644390701513
aF2.7898562011020798
aF2.453679427603425
aF2.6038916702073918
aF2.678225111309482
aF2.479158711507547
aF2.6495375095821685
aF2.6125137756307395
aF2.640937291722745
aF2.667711964700087
aF2.691823592886442
aF2.6141982191659485
aF2.625382195984636
aF2.6561305240676236
aF2.6673477599657627
aF2.6213346405405007
aF2.7235099178442845
aF2.584707580423781
aF2.6601092283065286
aF2.5972143990164165
aF2.643370916146239
aF2.621301200095214
aF2.716542093339211
aF2.67069215771733
aF2.6651121396989272
aF2.5619026245176597
aF2.617424996917641
aa.