(lp0
(lp1
F0.1396952456241501
aF0.1354504144321242
aF0.14234788106806742
aF0.12889158642510093
aF0.13369992048387255
aF0.1254490481020794
aF0.1335130302398117
aF0.13050752529635112
aF0.14046949441699932
aF0.1408083132256332
aF0.13631010679584352
aF0.13713701622083735
aF0.13662097526376754
aF0.14536648556609508
aF0.1312110024425738
aF0.13544992971350236
aF0.14352990276336944
aF0.13052622635976432
aF0.14595901948545376
aF0.14304187854311856
aF0.1396743474407699
aF0.1383967323113277
aF0.13853545609305032
aF0.13827698558536708
aF0.1426620486625555
aF0.11874281522551158
aF0.11712611567869721
aF0.12091075142205336
aF0.12252320602431456
aF0.13516940297780863
aF0.13234372652298632
aa(lp2
F0.26308510322853584
aF0.26837201397636345
aF0.2793158984102562
aF0.26295998658384784
aF0.26215748136311606
aF0.25693336898916713
aF0.25606931517573417
aF0.2774323619215072
aF0.27199020724323103
aF0.27809517267952155
aF0.2703248050000102
aF0.2638875047182916
aF0.2556852018095465
aF0.2589800209735398
aF0.27305844497006665
aF0.27262657531509754
aF0.2798143403293267
aF0.27215953464238163
aF0.26290982601178936
aF0.26610465023309127
aF0.2655084388403985
aF0.2544814595716469
aF0.26563226094108333
aF0.2673185117844415
aF0.27093668544111027
aF0.2825976969212069
aF0.284444872379406
aF0.2719185210471738
aF0.27833840481444344
aF0.2745717109717115
aF0.28038851067465115
aa(lp3
F0.3866009741777934
aF0.42299984893436027
aF0.39588512499834727
aF0.4361169217946784
aF0.40264944462500746
aF0.406360113835794
aF0.4153535349082904
aF0.4091089729907633
aF0.36775838354922885
aF0.34868251324695115
aF0.3559782253982751
aF0.37056656058614296
aF0.3811775460187424
aF0.3829149292283328
aF0.39479156135387544
aF0.41949085474896525
aF0.39419840067938156
aF0.41971081632536744
aF0.4045115993923074
aF0.4216682543146597
aF0.4233833928211598
aF0.4084533792152351
aF0.41785795470809234
aF0.4095806813898911
aF0.4104381855408748
aF0.4222630887475133
aF0.3559841657668408
aF0.3601034599350892
aF0.3468964613427871
aF0.3669090861650637
aF0.3829070940973499
aa(lp4
F0.5654190458871465
aF0.5285212584226626
aF0.5620469751854223
aF0.5678364261283618
aF0.5416942172382342
aF0.5302108121920253
aF0.4921953820972012
aF0.5310880283802476
aF0.5241176083240425
aF0.5675312220567933
aF0.5459182683584776
aF0.5669054493213674
aF0.5704401063617907
aF0.5320502229104394
aF0.5681800443105031
aF0.5633389693531786
aF0.5490897714279691
aF0.5650408663875502
aF0.5241153695970402
aF0.5476334562820636
aF0.4630857832257465
aF0.47868941280932653
aF0.46511618150991124
aF0.5278950636498595
aF0.5325060043742335
aF0.5131420119378807
aF0.5272422060973152
aF0.542476253087831
aF0.5353190004580998
aF0.5543468314241726
aF0.5638224274593716
aa(lp5
F0.714389248696614
aF0.7146556840841418
aF0.684069952294013
aF0.6789623752898274
aF0.6650856561915369
aF0.6531725439757791
aF0.5841649755310965
aF0.6170614888459843
aF0.5805150756311577
aF0.6580142681837857
aF0.6173308069003993
aF0.6654558375058642
aF0.6479953311533332
aF0.7058362050496368
aF0.6811072870482067
aF0.7048465232433575
aF0.6496783211180338
aF0.6646990779723202
aF0.6470661710926089
aF0.6623851554420116
aF0.6784220781568968
aF0.6937411949627572
aF0.6560488425880616
aF0.65912335287669
aF0.6608465644523612
aF0.6603814027504523
aF0.6615543417065008
aF0.6625410336832225
aF0.6884243981226945
aF0.6743347415813724
aF0.7030356778729145
aa(lp6
F0.7427577365469107
aF0.7974760087541042
aF0.7843142633763133
aF0.8464718197122815
aF0.8240903689819525
aF0.8383247013849027
aF0.8515975048290064
aF0.7908777870080113
aF0.8511964336779292
aF0.8207337319772278
aF0.8410812078017319
aF0.8468177583953048
aF0.7891409472771921
aF0.8110945386099928
aF0.703474870049175
aF0.720030399894457
aF0.6933876543735477
aF0.7869927203006332
aF0.7661095940754166
aF0.7933926336969906
aF0.7762491340658229
aF0.81809733839206
aF0.8340529241055061
aF0.8328098908520246
aF0.7863422441579346
aF0.7705290767417846
aF0.7782013201611147
aF0.8002069408367565
aF0.8212236287336305
aF0.8351788532404645
aF0.8033134046538002
aa(lp7
F0.8543999844766571
aF0.9242631664668267
aF0.926899294568387
aF0.9488807647419768
aF0.9971096824212049
aF0.9149586620435355
aF1.005595030744272
aF0.9160654188190068
aF1.0208314938664245
aF0.930259026582029
aF0.9916381807595938
aF0.9858119073196763
aF0.9483131834767468
aF0.9930680847713376
aF0.8660172268905458
aF0.8076742873593954
aF0.820311828041352
aF0.8767872112024259
aF0.952798372079351
aF0.9558590754331154
aF0.9965187314861609
aF0.9833949816442518
aF0.9190335984429611
aF0.988040488626738
aF0.9505051813430219
aF0.8699190704079914
aF0.8415775318898153
aF0.810465530140859
aF0.8586140098993768
aF0.9280033357670243
aF0.9225107440386665
aa(lp8
F1.117176429310714
aF1.1162207992626805
aF1.078141052226378
aF1.0627305530045683
aF1.0353351821323986
aF1.0715352330531163
aF1.028894229202073
aF1.0663810149174264
aF1.1251219049697314
aF1.0862149798908998
aF1.12199363024369
aF1.1224054614378174
aF1.0937606544703171
aF1.1356638905453162
aF1.095381904657945
aF1.1325204252619159
aF1.0944480873206976
aF1.0913823253211146
aF1.0988317040484101
aF1.1393914083005465
aF1.1322423795259322
aF1.0520217246535202
aF1.1220560174635985
aF1.0811565592101438
aF1.1330142745340106
aF1.0850825442416052
aF1.119843979595536
aF1.0968452950143817
aF1.1276418832530055
aF1.0996489954213737
aF1.0896936810638975
aa(lp9
F1.2660273909533402
aF1.1935748368288093
aF1.0540886935662657
aF1.0382055299439936
aF1.0779633734459058
aF1.1564950548018618
aF1.1897519617058676
aF1.1401755784499348
aF1.1761191398052135
aF1.2606759146805788
aF1.2718655861022476
aF1.2249153868612217
aF1.1598259919512695
aF1.1976108026036394
aF1.1119004065503773
aF1.2514695130621596
aF1.2161430611888338
aF1.219150468167204
aF1.2717994108625155
aF1.1792478570580744
aF1.2696413446486416
aF1.2724072543796368
aF1.2709665794166958
aF1.2214701203186138
aF1.2176894197993817
aF1.2671192075756406
aF1.181246110297218
aF1.0771763798704408
aF1.036735075038908
aF1.0758360588955265
aF1.1625276127202098
aa(lp10
F1.4276801517083755
aF1.312273263856525
aF1.3962358824901406
aF1.3248510564956255
aF1.4228880731640814
aF1.340991117721693
aF1.3438996383997441
aF1.2938357855151856
aF1.3165110736380399
aF1.3540931879469735
aF1.423962735002902
aF1.3714451665806588
aF1.3532451671584944
aF1.331171284471068
aF1.2866772601985224
aF1.2367070706061996
aF1.3876000350758997
aF1.3616643224765115
aF1.4054486362347656
aF1.3652389555093973
aF1.354054658457962
aF1.2413348805277724
aF1.3726799408809338
aF1.250069670899936
aF1.412145299948709
aF1.4054723153434256
aF1.3576520790266946
aF1.4282077679642842
aF1.3160093239768627
aF1.4238831597328843
aF1.429930082002645
aa(lp11
F1.6652865724816037
aF1.5236653630832757
aF1.5824635064518
aF1.3294492261695963
aF1.2976012332013405
aF1.2967586758127794
aF1.423603878892525
aF1.5016165503193646
aF1.4395824089312648
aF1.4971964238130315
aF1.5232108964132025
aF1.4816643883121878
aF1.5888125907327104
aF1.6048366345211293
aF1.5055350355118078
aF1.4507413717796007
aF1.4552787617986287
aF1.315213186712224
aF1.0850741591049187
aF1.1088905679684784
aF1.3599526089393932
aF1.5244305602749295
aF1.587414278431257
aF1.5427057895319574
aF1.5357336900526732
aF1.5782908439781582
aF1.5934502492982006
aF1.5464386433832318
aF1.517325704514992
aF1.532313466170522
aF1.580048291549726
aa(lp12
F1.4376781980254316
aF1.3905211496094136
aF1.393632182389404
aF1.5732593007893254
aF1.55078708052128
aF1.591706213982648
aF1.5772623852739462
aF1.6525183744442529
aF1.6838416712073836
aF1.625864512087532
aF1.707525333645901
aF1.7080773272993373
aF1.59553268381063
aF1.700062119004127
aF1.6954131538835064
aF1.5852996674168516
aF1.7456131768398726
aF1.5725268532628525
aF1.690764243734347
aF1.6440500570080092
aF1.6923796139876215
aF1.6322652756522942
aF1.6287034895708867
aF1.7319988802162334
aF1.6455974435066072
aF1.4966692694826762
aF1.4008708360558157
aF1.4490539619679637
aF1.4674294896825995
aF1.473425533764671
aF1.5999752118904345
aa(lp13
F1.3886084737655022
aF1.5935375427408611
aF1.584104564713983
aF1.5914050572382832
aF1.7727715067069671
aF1.702525986983973
aF1.7819178587462883
aF1.783771172423292
aF1.7982115082626458
aF1.8785359509487545
aF1.8025583924350284
aF1.803473664586962
aF1.7240787588480688
aF1.798492700777453
aF1.7441391537450064
aF1.7999236564004681
aF1.7741858993838728
aF1.8808137275507693
aF1.8268778463167468
aF1.7455066291401413
aF1.7187737519816149
aF1.8095712995414186
aF1.777710835612428
aF1.8845757082732004
aF1.752056016878082
aF1.8493184346858311
aF1.7299233907465354
aF1.7842159265625188
aF1.7748306775603047
aF1.7226926668492446
aF1.8750136016738976
aa(lp14
F2.038823072477123
aF2.021943975834879
aF1.844505639023841
aF1.91413257661661
aF1.856687048767407
aF1.9114486606838088
aF1.9543302905831206
aF2.0246071787824453
aF1.9600114608888568
aF1.9407201648433
aF1.8669870132797557
aF1.9100172674812685
aF1.8657376733854387
aF1.9690248902275143
aF2.014358368406899
aF1.8829545089811466
aF2.018348224048583
aF1.920743591881147
aF1.8589360213475215
aF1.9236895077075513
aF1.8669615411567917
aF2.004722902144508
aF1.8839731432531024
aF2.025178951341534
aF1.9326319334511906
aF1.9254305780076328
aF1.8538352474320965
aF1.8376078881459783
aF2.011958002655321
aF1.9132337770484045
aF1.959692214433737
aa(lp15
F1.8747720995855857
aF2.0009897547516187
aF1.9473636809950972
aF2.0037656358747915
aF2.09994019377777
aF2.1386807788111666
aF2.036040468581292
aF2.134830165561207
aF1.992193387710594
aF2.133611957454856
aF2.1341485703774064
aF1.9892710770020716
aF2.101067745971823
aF2.045946229406673
aF2.031169016028875
aF1.8107645738522191
aF1.7735566234502504
aF1.7386443722777774
aF1.985537886920285
aF1.916155372101276
aF1.9195318046808127
aF1.9891855036704087
aF2.177660574487155
aF1.9800349829553237
aF2.1124220818427255
aF2.0328596625957895
aF1.9292646879398658
aF1.9923783247899354
aF1.871379683899135
aF2.0973135840563835
aF2.1422804419909207
aa(lp16
F2.2706040068386764
aF2.2156441396598883
aF2.2872247787128157
aF2.217924275027698
aF2.205321945960128
aF2.248179427802228
aF2.101503689397012
aF2.2637302596089905
aF1.9827100927725732
aF1.8754956420551638
aF1.9030225411198103
aF1.9520089678256876
aF2.036823163756558
aF2.0650125805848156
aF2.1390208549070713
aF2.282614210193039
aF2.154300065008944
aF2.2508214792399834
aF2.0878236353388244
aF2.1133866195356754
aF2.1237672335616806
aF2.1385744209870268
aF2.1254286246355627
aF2.1081454590754247
aF2.2621080112711534
aF2.284689528151571
aF2.0724430078873284
aF2.046711938000331
aF2.121953266044247
aF2.1774222521598947
aF2.1442361985308116
aa(lp17
F2.4392824665248725
aF2.2522827554237406
aF2.25874765435368
aF2.1793229026730687
aF2.258311428354919
aF2.3180499247432964
aF2.3207645041937544
aF2.3228737302184026
aF2.3719717426032316
aF2.212294428862191
aF2.1727612548873685
aF2.1877501824973318
aF2.323905269272178
aF2.249035293364128
aF2.4213093931190013
aF2.4076743819130475
aF2.278034306134415
aF2.1891604850361124
aF2.1480306170817633
aF2.191618959698449
aF2.3997428974079607
aF2.3468901023425626
aF2.4171702305302047
aF2.309088221312653
aF2.4281289214009463
aF2.31427391492102
aF2.3339075290482847
aF2.421001020917562
aF2.2404637455196954
aF2.460123758585404
aF2.3157741043573887
aa(lp18
F2.0254353639364786
aF2.0800221981778897
aF2.3824031617076398
aF2.3908040607022256
aF2.393488804899791
aF2.5001066334200983
aF2.5766476524917468
aF2.4228190563405505
aF2.619294300380297
aF2.5197904402417373
aF2.62084821635636
aF2.6123198970232933
aF2.52448769588629
aF2.4292282228577005
aF2.5891120638231406
aF2.584645951746235
aF2.60887825944512
aF2.3112020954515673
aF2.1253470831167887
aF2.0950906024166382
aF2.236128498638983
aF2.4669502286764606
aF2.3916377447206454
aF2.473253629434379
aF2.4365993915646604
aF2.5161882833921876
aF2.6144013479019748
aF2.4725234248835917
aF2.4318480961777644
aF2.3834428080150416
aF2.4944290314427633
aa(lp19
F2.5814602280382375
aF2.72233756544262
aF2.668080833547262
aF2.63432345594331
aF2.608160309058348
aF2.51474463302173
aF2.5312168652019342
aF2.689735381830463
aF2.758561256028026
aF2.5501468369267273
aF2.6625082103995945
aF2.7602532835282387
aF2.523644278584695
aF2.4919088367271294
aF2.601149704010979
aF2.630989042120338
aF2.7264856756942435
aF2.6752448004881395
aF2.6405118608414266
aF2.605346373768931
aF2.509753809025777
aF2.5509109919204764
aF2.6706949071160917
aF2.666013864967074
aF2.6422680501701485
aF2.7510993938881914
aF2.673822397251416
aF2.5391988655704223
aF2.507855805251577
aF2.6149783184841424
aF2.5981262335391313
aa(lp20
F2.662656220149184
aF2.834198033072712
aF2.5641349685960018
aF2.5372133418995495
aF2.6334008394009856
aF2.674827477982366
aF2.6080268417958172
aF2.6908990896786156
aF2.757952027971562
aF2.477501186269662
aF2.631164547034548
aF2.6403373579121228
aF2.586461509438172
aF2.7219116585011975
aF2.690296898706749
aF2.8403203052106956
aF2.6134779330030353
aF2.5493200972674828
aF2.5580628034589936
aF2.6145787536954734
aF2.8135899649191605
aF2.683670589268874
aF2.705050248250052
aF2.765955584766701
aF2.5476552478672354
aF2.5237463256125925
aF2.656117454118452
aF2.776788489591972
aF2.7307463395624434
aF2.7203747957625724
aF2.6919304130496555
aa(lp21
F2.7842283834327057
aF2.6904260488639813
aF2.77136816652437
aF2.8542633720355166
aF2.925694866531151
aF2.846422082373915
aF2.7430302268263493
aF2.7942334552660792
aF2.6777069770262334
aF2.7997426257494182
aF2.9436399778212547
aF2.768613830374964
aF3.0642550519387717
aF2.7954907206719444
aF2.742023088463849
aF2.5946652733092264
aF2.773892998422654
aF2.9328796074429553
aF2.7564644618735374
aF2.944709591885731
aF2.8024872026216667
aF2.779714478075353
aF2.799541945836459
aF2.6904121537113292
aF2.315421370061883
aF2.0380014221753315
aF2.053523570749198
aF2.4805123641071236
aF2.431048000553248
aF2.5273822565925195
aF2.5938734382159745
aa.